target datalayout = "e-m:e-p270:32:32-p271:32:32-p272:64:64-i64:64-i128:128-f80:128-n8:16:32:64-S128"
target triple = "x86_64-pc-linux-gnu"

%"class.std::__cxx11::basic_string" = type { %"struct.std::__cxx11::basic_string<char>::_Alloc_hider", i64, %union.anon }
%"struct.std::__cxx11::basic_string<char>::_Alloc_hider" = type { ptr }
%union.anon = type { i64, [8 x i8] }
%class.FunctionInvocationUnary = type { %class.FunctionInvocation, i32, %"class.std::__cxx11::basic_string" }
%class.FunctionInvocation = type { ptr, i32, %"class.std::vector.34", i8, i8, ptr }
%"class.std::vector.34" = type { %"struct.std::_Vector_base.35" }
%"struct.std::_Vector_base.35" = type { %"struct.std::_Vector_base<const Expression *, std::allocator<const Expression *>>::_Vector_impl" }
%"struct.std::_Vector_base<const Expression *, std::allocator<const Expression *>>::_Vector_impl" = type { %"struct.std::_Vector_base<const Expression *, std::allocator<const Expression *>>::_Vector_impl_data" }
%"struct.std::_Vector_base<const Expression *, std::allocator<const Expression *>>::_Vector_impl_data" = type { ptr, ptr, ptr }

; Function Attrs: mustprogress nounwind uwtable
define linkonce_odr dso_local noundef nonnull align 8 dereferenceable(8) ptr @_ZNKSt6vectorIPK10ExpressionSaIS2_EEixEm(ptr noundef nonnull align 8 dereferenceable(24) %0, i64 noundef %1) #5 comdat align 2 {
  %3 = alloca ptr, align 8
  %4 = alloca i64, align 8
  store ptr %0, ptr %3, align 8
  store i64 %1, ptr %4, align 8
  %5 = load ptr, ptr %3, align 8
  %6 = getelementptr inbounds %"struct.std::_Vector_base.35", ptr %5, i32 0, i32 0
  %7 = getelementptr inbounds %"struct.std::_Vector_base<const Expression *, std::allocator<const Expression *>>::_Vector_impl_data", ptr %6, i32 0, i32 0
  %8 = load ptr, ptr %7, align 8
  %9 = load i64, ptr %4, align 8
  %10 = getelementptr inbounds ptr, ptr %8, i64 %9
  ret ptr %10
}

; Function Attrs: mustprogress uwtable
define dso_local noundef zeroext i1 @_ZNK23FunctionInvocationUnary6equalsEi(ptr noundef nonnull align 8 dereferenceable(96) %0, i32 noundef %1) unnamed_addr #4 align 2 {
  %3 = alloca i1, align 1
  %4 = alloca ptr, align 8
  %5 = alloca i32, align 4
  store ptr %0, ptr %4, align 8
  store i32 %1, ptr %5, align 4
  %6 = load ptr, ptr %4, align 8
  %7 = load i32, ptr %5, align 4
  %8 = icmp eq i32 %7, 0
  br i1 %8, label %9, label %22

9:                                                ; preds = %2
  %10 = getelementptr inbounds %class.FunctionInvocationUnary, ptr %6, i32 0, i32 1
  %11 = load i32, ptr %10, align 8
  %12 = icmp eq i32 %11, 2
  br i1 %12, label %13, label %22

13:                                               ; preds = %9
  %14 = getelementptr inbounds %class.FunctionInvocation, ptr %6, i32 0, i32 2
  %15 = call noundef nonnull align 8 dereferenceable(8) ptr @_ZNKSt6vectorIPK10ExpressionSaIS2_EEixEm(ptr noundef nonnull align 8 dereferenceable(24) %14, i64 noundef 0) #3
  %16 = load ptr, ptr %15, align 8
  %17 = load ptr, ptr %16, align 8
  %18 = getelementptr inbounds ptr, ptr %17, i64 14
  %19 = load ptr, ptr %18, align 8
  %20 = call noundef zeroext i1 %19(ptr noundef nonnull align 8 dereferenceable(24) %16, i32 noundef 0)
  br i1 %20, label %21, label %22

21:                                               ; preds = %13
  store i1 true, ptr %3, align 1
  br label %54

22:                                               ; preds = %13, %9, %2
  %23 = load i32, ptr %5, align 4
  %24 = icmp eq i32 %23, 1
  br i1 %24, label %25, label %38

25:                                               ; preds = %22
  %26 = getelementptr inbounds %class.FunctionInvocationUnary, ptr %6, i32 0, i32 1
  %27 = load i32, ptr %26, align 8
  %28 = icmp eq i32 %27, 2
  br i1 %28, label %29, label %38

29:                                               ; preds = %25
  %30 = getelementptr inbounds %class.FunctionInvocation, ptr %6, i32 0, i32 2
  %31 = call noundef nonnull align 8 dereferenceable(8) ptr @_ZNKSt6vectorIPK10ExpressionSaIS2_EEixEm(ptr noundef nonnull align 8 dereferenceable(24) %30, i64 noundef 0) #3
  %32 = load ptr, ptr %31, align 8
  %33 = load ptr, ptr %32, align 8
  %34 = getelementptr inbounds ptr, ptr %33, i64 15
  %35 = load ptr, ptr %34, align 8
  %36 = call noundef zeroext i1 %35(ptr noundef nonnull align 8 dereferenceable(24) %32, i32 noundef 0)
  br i1 %36, label %37, label %38

37:                                               ; preds = %29
  store i1 true, ptr %3, align 1
  br label %54

38:                                               ; preds = %29, %25, %22
  %39 = getelementptr inbounds %class.FunctionInvocationUnary, ptr %6, i32 0, i32 1
  %40 = load i32, ptr %39, align 8
  %41 = icmp eq i32 %40, 1
  br i1 %41, label %42, label %53

42:                                               ; preds = %38
  %43 = getelementptr inbounds %class.FunctionInvocation, ptr %6, i32 0, i32 2
  %44 = call noundef nonnull align 8 dereferenceable(8) ptr @_ZNKSt6vectorIPK10ExpressionSaIS2_EEixEm(ptr noundef nonnull align 8 dereferenceable(24) %43, i64 noundef 0) #3
  %45 = load ptr, ptr %44, align 8
  %46 = load i32, ptr %5, align 4
  %47 = mul nsw i32 %46, -1
  %48 = load ptr, ptr %45, align 8
  %49 = getelementptr inbounds ptr, ptr %48, i64 15
  %50 = load ptr, ptr %49, align 8
  %51 = call noundef zeroext i1 %50(ptr noundef nonnull align 8 dereferenceable(24) %45, i32 noundef %47)
  br i1 %51, label %52, label %53

52:                                               ; preds = %42
  store i1 true, ptr %3, align 1
  br label %54

53:                                               ; preds = %42, %38
  store i1 false, ptr %3, align 1
  br label %54

54:                                               ; preds = %53, %52, %37, %21
  %55 = load i1, ptr %3, align 1
  ret i1 %55
}