; Function Attrs: mustprogress uwtable
define dso_local noundef zeroext i1 @_ZNK23FunctionInvocationUnary6equalsEi(ptr nocapture noundef nonnull readonly align 8 dereferenceable(96) %0, i32 noundef %1) unnamed_addr #3 align 2 {
  %3 = icmp eq i32 %1, 0
  %4 = getelementptr inbounds i8, ptr %0, i64 56
  %5 = load i32, ptr %4, align 8
  %6 = icmp eq i32 %5, 2
  %or.cond = select i1 %3, i1 %6, i1 false
  br i1 %or.cond, label %7, label %15

7:                                                ; preds = %2
  %8 = getelementptr inbounds i8, ptr %0, i64 16
  %9 = load ptr, ptr %8, align 8
  %10 = load ptr, ptr %9, align 8
  %11 = load ptr, ptr %10, align 8
  %12 = getelementptr inbounds i8, ptr %11, i64 112
  %13 = load ptr, ptr %12, align 8
  %14 = tail call noundef zeroext i1 %13(ptr noundef nonnull align 8 dereferenceable(24) %10, i32 noundef 0)
  br i1 %14, label %38, label %thread-pre-split

15:                                               ; preds = %2
  %16 = icmp eq i32 %1, 1
  %or.cond8 = select i1 %16, i1 %6, i1 false
  br i1 %or.cond8, label %17, label %25

17:                                               ; preds = %15
  %18 = getelementptr inbounds i8, ptr %0, i64 16
  %19 = load ptr, ptr %18, align 8
  %20 = load ptr, ptr %19, align 8
  %21 = load ptr, ptr %20, align 8
  %22 = getelementptr inbounds i8, ptr %21, i64 120
  %23 = load ptr, ptr %22, align 8
  %24 = tail call noundef zeroext i1 %23(ptr noundef nonnull align 8 dereferenceable(24) %20, i32 noundef 0)
  br i1 %24, label %38, label %thread-pre-split

thread-pre-split:                                 ; preds = %7, %17
  %.pr = load i32, ptr %4, align 8
  br label %25

25:                                               ; preds = %thread-pre-split, %15
  %26 = phi i32 [ %.pr, %thread-pre-split ], [ %5, %15 ]
  %27 = icmp eq i32 %26, 1
  br i1 %27, label %28, label %37

28:                                               ; preds = %25
  %29 = getelementptr inbounds i8, ptr %0, i64 16
  %30 = load ptr, ptr %29, align 8
  %31 = load ptr, ptr %30, align 8
  %32 = sub nsw i32 0, %1
  %33 = load ptr, ptr %31, align 8
  %34 = getelementptr inbounds i8, ptr %33, i64 120
  %35 = load ptr, ptr %34, align 8
  %36 = tail call noundef zeroext i1 %35(ptr noundef nonnull align 8 dereferenceable(24) %31, i32 noundef %32)
  br i1 %36, label %38, label %37

37:                                               ; preds = %28, %25
  br label %38

38:                                               ; preds = %28, %17, %7, %37
  %.0 = phi i1 [ false, %37 ], [ true, %7 ], [ true, %17 ], [ true, %28 ]
  ret i1 %.0
}